#include <math.h>
#include <stdio.h>
#include <stdlib.h>
#include <string.h>

void main()
{
	int a[100],i=0,l,j;
	scanf("%d",&a[0]);l=a[0];
	while(getchar()!=10)scanf("%d",&a[++i]);
	for(j=0;j<=i;j++)if(a[j]>l)l=a[j];
	for(j=0;j<=i;j++)if(l==a[j])a[j]=0;
	l=a[0];
	for(j=0;j<=i;j++)if(a[j]>l)l=a[j];
	if(l==0)printf("No");
	else printf("%d",l);
}