; ModuleID = '22/310.c'
source_filename = "22/310.c"
target datalayout = "e-m:e-p270:32:32-p271:32:32-p272:64:64-i64:64-f80:128-n8:16:32:64-S128"
target triple = "x86_64-pc-linux-gnu"

@.str = private unnamed_addr constant [3 x i8] c"%d\00", align 1
@.str.1 = private unnamed_addr constant [3 x i8] c"No\00", align 1

; Function Attrs: noinline nounwind uwtable
define dso_local void @main() #0 {
  %1 = alloca [100 x i32], align 16
  %2 = alloca i32, align 4
  %3 = alloca i32, align 4
  %4 = alloca i32, align 4
  store i32 0, i32* %2, align 4
  %5 = getelementptr inbounds [100 x i32], [100 x i32]* %1, i64 0, i64 0
  %6 = call i32 (i8*, ...) @__isoc99_scanf(i8* getelementptr inbounds ([3 x i8], [3 x i8]* @.str, i64 0, i64 0), i32* %5)
  %7 = getelementptr inbounds [100 x i32], [100 x i32]* %1, i64 0, i64 0
  %8 = load i32, i32* %7, align 16
  store i32 %8, i32* %3, align 4
  br label %9

9:                                                ; preds = %12, %0
  %10 = call i32 @getchar()
  %11 = icmp ne i32 %10, 10
  br i1 %11, label %12, label %18

12:                                               ; preds = %9
  %13 = load i32, i32* %2, align 4
  %14 = add nsw i32 %13, 1
  store i32 %14, i32* %2, align 4
  %15 = sext i32 %14 to i64
  %16 = getelementptr inbounds [100 x i32], [100 x i32]* %1, i64 0, i64 %15
  %17 = call i32 (i8*, ...) @__isoc99_scanf(i8* getelementptr inbounds ([3 x i8], [3 x i8]* @.str, i64 0, i64 0), i32* %16)
  br label %9

18:                                               ; preds = %9
  store i32 0, i32* %4, align 4
  br label %19

19:                                               ; preds = %36, %18
  %20 = load i32, i32* %4, align 4
  %21 = load i32, i32* %2, align 4
  %22 = icmp sle i32 %20, %21
  br i1 %22, label %23, label %39

23:                                               ; preds = %19
  %24 = load i32, i32* %4, align 4
  %25 = sext i32 %24 to i64
  %26 = getelementptr inbounds [100 x i32], [100 x i32]* %1, i64 0, i64 %25
  %27 = load i32, i32* %26, align 4
  %28 = load i32, i32* %3, align 4
  %29 = icmp sgt i32 %27, %28
  br i1 %29, label %30, label %35

30:                                               ; preds = %23
  %31 = load i32, i32* %4, align 4
  %32 = sext i32 %31 to i64
  %33 = getelementptr inbounds [100 x i32], [100 x i32]* %1, i64 0, i64 %32
  %34 = load i32, i32* %33, align 4
  store i32 %34, i32* %3, align 4
  br label %35

35:                                               ; preds = %30, %23
  br label %36

36:                                               ; preds = %35
  %37 = load i32, i32* %4, align 4
  %38 = add nsw i32 %37, 1
  store i32 %38, i32* %4, align 4
  br label %19

39:                                               ; preds = %19
  store i32 0, i32* %4, align 4
  br label %40

40:                                               ; preds = %56, %39
  %41 = load i32, i32* %4, align 4
  %42 = load i32, i32* %2, align 4
  %43 = icmp sle i32 %41, %42
  br i1 %43, label %44, label %59

44:                                               ; preds = %40
  %45 = load i32, i32* %3, align 4
  %46 = load i32, i32* %4, align 4
  %47 = sext i32 %46 to i64
  %48 = getelementptr inbounds [100 x i32], [100 x i32]* %1, i64 0, i64 %47
  %49 = load i32, i32* %48, align 4
  %50 = icmp eq i32 %45, %49
  br i1 %50, label %51, label %55

51:                                               ; preds = %44
  %52 = load i32, i32* %4, align 4
  %53 = sext i32 %52 to i64
  %54 = getelementptr inbounds [100 x i32], [100 x i32]* %1, i64 0, i64 %53
  store i32 0, i32* %54, align 4
  br label %55

55:                                               ; preds = %51, %44
  br label %56

56:                                               ; preds = %55
  %57 = load i32, i32* %4, align 4
  %58 = add nsw i32 %57, 1
  store i32 %58, i32* %4, align 4
  br label %40

59:                                               ; preds = %40
  %60 = getelementptr inbounds [100 x i32], [100 x i32]* %1, i64 0, i64 0
  %61 = load i32, i32* %60, align 16
  store i32 %61, i32* %3, align 4
  store i32 0, i32* %4, align 4
  br label %62

62:                                               ; preds = %79, %59
  %63 = load i32, i32* %4, align 4
  %64 = load i32, i32* %2, align 4
  %65 = icmp sle i32 %63, %64
  br i1 %65, label %66, label %82

66:                                               ; preds = %62
  %67 = load i32, i32* %4, align 4
  %68 = sext i32 %67 to i64
  %69 = getelementptr inbounds [100 x i32], [100 x i32]* %1, i64 0, i64 %68
  %70 = load i32, i32* %69, align 4
  %71 = load i32, i32* %3, align 4
  %72 = icmp sgt i32 %70, %71
  br i1 %72, label %73, label %78

73:                                               ; preds = %66
  %74 = load i32, i32* %4, align 4
  %75 = sext i32 %74 to i64
  %76 = getelementptr inbounds [100 x i32], [100 x i32]* %1, i64 0, i64 %75
  %77 = load i32, i32* %76, align 4
  store i32 %77, i32* %3, align 4
  br label %78

78:                                               ; preds = %73, %66
  br label %79

79:                                               ; preds = %78
  %80 = load i32, i32* %4, align 4
  %81 = add nsw i32 %80, 1
  store i32 %81, i32* %4, align 4
  br label %62

82:                                               ; preds = %62
  %83 = load i32, i32* %3, align 4
  %84 = icmp eq i32 %83, 0
  br i1 %84, label %85, label %87

85:                                               ; preds = %82
  %86 = call i32 (i8*, ...) @printf(i8* getelementptr inbounds ([3 x i8], [3 x i8]* @.str.1, i64 0, i64 0))
  br label %90

87:                                               ; preds = %82
  %88 = load i32, i32* %3, align 4
  %89 = call i32 (i8*, ...) @printf(i8* getelementptr inbounds ([3 x i8], [3 x i8]* @.str, i64 0, i64 0), i32 %88)
  br label %90

90:                                               ; preds = %87, %85
  ret void
}

declare dso_local i32 @__isoc99_scanf(i8*, ...) #1

declare dso_local i32 @getchar() #1

declare dso_local i32 @printf(i8*, ...) #1


!llvm.module.flags = !{!0}
!llvm.ident = !{!1}

!0 = !{i32 1, !"wchar_size", i32 4}
!1 = !{!"clang version 10.0.0-4ubuntu1 "}
